; Function Attrs: mustprogress uwtable
define hidden void @_ZN13Z3_solver_ref11assert_exprEP4exprS1_(ptr noundef nonnull readonly align 8 captures(none) dereferenceable(128) %0, ptr noundef %1, ptr noundef %2) local_unnamed_addr #3 align 2 {
  %4 = getelementptr inbounds nuw i8, ptr %0, i64 64
  %5 = load ptr, ptr %4, align 8, !tbaa !83
  %.not = icmp eq ptr %5, null
  br i1 %.not, label %7, label %6

6:                                                ; preds = %3
  tail call void @_ZN14solver2smt2_pp11assert_exprEP4exprS1_(ptr noundef nonnull align 8 dereferenceable(1240) %5, ptr noundef %1, ptr noundef %2)
  br label %7

7:                                                ; preds = %6, %3
  %8 = getelementptr inbounds nuw i8, ptr %0, i64 32
  %9 = load ptr, ptr %8, align 8, !tbaa !84
  tail call void @_ZN6solver11assert_exprEP4exprS1_(ptr noundef nonnull align 8 dereferenceable(96) %9, ptr noundef %1, ptr noundef %2)
  ret void
}